; Function Attrs: mustprogress nofree norecurse nosync nounwind willreturn memory(readwrite, argmem: write, inaccessiblemem: none) uwtable
define hidden void @_ZN12HotSpotJVMCI22HotSpotCompiledNmethod6set_idEP8JVMCIEnvP7oopDesci(ptr nocapture noundef readnone %0, ptr noundef %1, i32 noundef %2) local_unnamed_addr #7 align 2 {
  %4 = load i32, ptr @_ZN12HotSpotJVMCI22HotSpotCompiledNmethod10_id_offsetE, align 4
  %5 = ptrtoint ptr %1 to i64
  %6 = sext i32 %4 to i64
  %7 = add nsw i64 %6, %5
  %8 = inttoptr i64 %7 to ptr
  store i32 %2, ptr %8, align 4
  ret void
}